target datalayout = "e-m:e-p270:32:32-p271:32:32-p272:64:64-i64:64-i128:128-f80:128-n8:16:32:64-S128"
target triple = "x86_64-unknown-linux-gnu"

%"class.net::QuicStreamSequencer" = type <{ ptr, ptr, %"class.net::QuicStreamSequencerBuffer", i64, i8, [3 x i8], i32, i32, [4 x i8], ptr, i8, [7 x i8] }>
%"class.net::QuicStreamSequencerBuffer" = type { i64, i64, i64, %"class.std::__cxx11::list", i8, %"class.std::unique_ptr", i64, %"class.std::map" }
%"class.std::__cxx11::list" = type { %"class.std::__cxx11::_List_base" }
%"class.std::__cxx11::_List_base" = type { %"struct.std::__cxx11::_List_base<net::QuicStreamSequencerBuffer::Gap, std::allocator<net::QuicStreamSequencerBuffer::Gap>>::_List_impl" }
%"struct.std::__cxx11::_List_base<net::QuicStreamSequencerBuffer::Gap, std::allocator<net::QuicStreamSequencerBuffer::Gap>>::_List_impl" = type { %"struct.std::__detail::_List_node_header" }
%"struct.std::__detail::_List_node_header" = type { %"struct.std::__detail::_List_node_base", i64 }
%"struct.std::__detail::_List_node_base" = type { ptr, ptr }
%"class.std::unique_ptr" = type { %"struct.std::__uniq_ptr_data" }
%"struct.std::__uniq_ptr_data" = type { %"class.std::__uniq_ptr_impl" }
%"class.std::__uniq_ptr_impl" = type { %"class.std::tuple" }
%"class.std::tuple" = type { %"struct.std::_Tuple_impl" }
%"struct.std::_Tuple_impl" = type { %"struct.std::_Head_base.1" }
%"struct.std::_Head_base.1" = type { ptr }
%"class.std::map" = type { %"class.std::_Rb_tree" }
%"class.std::_Rb_tree" = type { %"struct.std::_Rb_tree<unsigned long, std::pair<const unsigned long, net::QuicStreamSequencerBuffer::FrameInfo>, std::_Select1st<std::pair<const unsigned long, net::QuicStreamSequencerBuffer::FrameInfo>>, std::less<unsigned long>>::_Rb_tree_impl" }
%"struct.std::_Rb_tree<unsigned long, std::pair<const unsigned long, net::QuicStreamSequencerBuffer::FrameInfo>, std::_Select1st<std::pair<const unsigned long, net::QuicStreamSequencerBuffer::FrameInfo>>, std::less<unsigned long>>::_Rb_tree_impl" = type { %"struct.std::_Rb_tree_key_compare", %"struct.std::_Rb_tree_header" }
%"struct.std::_Rb_tree_key_compare" = type { %"struct.std::less" }
%"struct.std::less" = type { i8 }
%"struct.std::_Rb_tree_header" = type { %"struct.std::_Rb_tree_node_base", i64 }
%"struct.std::_Rb_tree_node_base" = type { i32, ptr, ptr, ptr }

@_ZTVN3net19QuicStreamSequencerE = dso_local unnamed_addr constant { [4 x ptr] } { [4 x ptr] [ptr null, ptr @_ZTIN3net19QuicStreamSequencerE, ptr @_ZN3net19QuicStreamSequencerD1Ev, ptr @_ZN3net19QuicStreamSequencerD0Ev] }, align 8

; Function Attrs: mustprogress nounwind uwtable
define linkonce_odr dso_local noundef i64 @_ZNSt14numeric_limitsImE3maxEv() #2 comdat align 2 {
entry:
  ret i64 -1
}

; Function Attrs: mustprogress uwtable
define dso_local void @_ZN3net19QuicStreamSequencerC2EPNS_18ReliableQuicStreamEPKNS_9QuicClockE(ptr noundef nonnull align 8 dereferenceable(169) %this, ptr noundef %quic_stream, ptr noundef %clock) unnamed_addr #0 align 2 {
entry:
  %this.addr = alloca ptr, align 8
  %quic_stream.addr = alloca ptr, align 8
  %clock.addr = alloca ptr, align 8
  store ptr %this, ptr %this.addr, align 8
  store ptr %quic_stream, ptr %quic_stream.addr, align 8
  store ptr %clock, ptr %clock.addr, align 8
  %this1 = load ptr, ptr %this.addr, align 8
  store ptr getelementptr inbounds ({ [4 x ptr] }, ptr @_ZTVN3net19QuicStreamSequencerE, i32 0, i32 0, i32 2), ptr %this1, align 8
  %stream_ = getelementptr inbounds %"class.net::QuicStreamSequencer", ptr %this1, i32 0, i32 1
  %0 = load ptr, ptr %quic_stream.addr, align 8
  store ptr %0, ptr %stream_, align 8
  %buffered_frames_ = getelementptr inbounds %"class.net::QuicStreamSequencer", ptr %this1, i32 0, i32 2
  call void @_ZN3net25QuicStreamSequencerBufferC1Em(ptr noundef nonnull align 8 dereferenceable(120) %buffered_frames_, i64 noundef 16777216)
  %close_offset_ = getelementptr inbounds %"class.net::QuicStreamSequencer", ptr %this1, i32 0, i32 3
  %call = call noundef i64 @_ZNSt14numeric_limitsImE3maxEv() #5
  store i64 %call, ptr %close_offset_, align 8
  %blocked_ = getelementptr inbounds %"class.net::QuicStreamSequencer", ptr %this1, i32 0, i32 4
  store i8 0, ptr %blocked_, align 8
  %num_frames_received_ = getelementptr inbounds %"class.net::QuicStreamSequencer", ptr %this1, i32 0, i32 6
  store i32 0, ptr %num_frames_received_, align 4
  %num_duplicate_frames_received_ = getelementptr inbounds %"class.net::QuicStreamSequencer", ptr %this1, i32 0, i32 7
  store i32 0, ptr %num_duplicate_frames_received_, align 8
  %clock_ = getelementptr inbounds %"class.net::QuicStreamSequencer", ptr %this1, i32 0, i32 9
  %1 = load ptr, ptr %clock.addr, align 8
  store ptr %1, ptr %clock_, align 8
  %ignore_read_data_ = getelementptr inbounds %"class.net::QuicStreamSequencer", ptr %this1, i32 0, i32 10
  store i8 0, ptr %ignore_read_data_, align 8
  ret void
}