; Function Attrs: mustprogress uwtable
define dso_local void @_ZN3net19QuicStreamSequencerC2EPNS_18ReliableQuicStreamEPKNS_9QuicClockE(ptr noundef nonnull align 8 dereferenceable(169) %this, ptr noundef %quic_stream, ptr noundef %clock) unnamed_addr #0 align 2 {
entry:
  store ptr getelementptr inbounds ({ [4 x ptr] }, ptr @_ZTVN3net19QuicStreamSequencerE, i64 0, i32 0, i64 2), ptr %this, align 8
  %stream_ = getelementptr inbounds i8, ptr %this, i64 8
  store ptr %quic_stream, ptr %stream_, align 8
  %buffered_frames_ = getelementptr inbounds i8, ptr %this, i64 16
  tail call void @_ZN3net25QuicStreamSequencerBufferC1Em(ptr noundef nonnull align 8 dereferenceable(120) %buffered_frames_, i64 noundef 16777216)
  %close_offset_ = getelementptr inbounds i8, ptr %this, i64 136
  store i64 -1, ptr %close_offset_, align 8
  %blocked_ = getelementptr inbounds i8, ptr %this, i64 144
  store i8 0, ptr %blocked_, align 8
  %num_frames_received_ = getelementptr inbounds i8, ptr %this, i64 148
  store i32 0, ptr %num_frames_received_, align 4
  %num_duplicate_frames_received_ = getelementptr inbounds i8, ptr %this, i64 152
  store i32 0, ptr %num_duplicate_frames_received_, align 8
  %clock_ = getelementptr inbounds i8, ptr %this, i64 160
  store ptr %clock, ptr %clock_, align 8
  %ignore_read_data_ = getelementptr inbounds i8, ptr %this, i64 168
  store i8 0, ptr %ignore_read_data_, align 8
  ret void
}